; Function Attrs: nofree norecurse nosync nounwind memory(argmem: readwrite) uwtable
define internal void @premultiply16offset(ptr noundef readonly captures(none) %0, ptr noundef readonly captures(none) %1, ptr noundef writeonly captures(none) %2, i64 noundef %3, i64 noundef %4, i64 noundef %5, i32 noundef %6, i32 noundef %7, i32 noundef %8, i32 noundef %9, i32 noundef %10) #5 {
  %12 = icmp sgt i32 %7, 0
  br i1 %12, label %.preheader.lr.ph, label %._crit_edge35

.preheader.lr.ph:                                 ; preds = %11
  %13 = icmp sgt i32 %6, 0
  %14 = sext i32 %8 to i64
  %15 = zext nneg i32 %9 to i64
  %16 = zext i32 %10 to i64
  %17 = sdiv i64 %5, 2
  %18 = sdiv i64 %3, 2
  %19 = sdiv i64 %4, 2
  br i1 %13, label %.preheader.us.preheader, label %._crit_edge35

.preheader.us.preheader:                          ; preds = %.preheader.lr.ph
  %wide.trip.count = zext nneg i32 %6 to i64
  br label %.preheader.us

.preheader.us:                                    ; preds = %.preheader.us.preheader, %._crit_edge.us
  %.034.us = phi i32 [ %42, %._crit_edge.us ], [ 0, %.preheader.us.preheader ]
  %.02733.us = phi ptr [ %39, %._crit_edge.us ], [ %2, %.preheader.us.preheader ]
  %.02832.us = phi ptr [ %41, %._crit_edge.us ], [ %1, %.preheader.us.preheader ]
  %.02931.us = phi ptr [ %40, %._crit_edge.us ], [ %0, %.preheader.us.preheader ]
  br label %20

20:                                               ; preds = %.preheader.us, %20
  %indvars.iv = phi i64 [ 0, %.preheader.us ], [ %indvars.iv.next, %20 ]
  %21 = getelementptr inbounds nuw i16, ptr %.02931.us, i64 %indvars.iv
  %22 = load i16, ptr %21, align 2, !tbaa !85
  %23 = zext i16 %22 to i32
  %24 = sub nsw i32 %23, %10
  %25 = sext i32 %24 to i64
  %26 = getelementptr inbounds nuw i16, ptr %.02832.us, i64 %indvars.iv
  %27 = load i16, ptr %26, align 2, !tbaa !85
  %28 = zext i16 %27 to i32
  %29 = lshr i32 %28, 1
  %30 = and i32 %29, 1
  %31 = add nuw nsw i32 %30, %28
  %32 = zext nneg i32 %31 to i64
  %33 = mul nsw i64 %32, %25
  %34 = add nsw i64 %33, %14
  %35 = ashr i64 %34, %15
  %36 = add nsw i64 %35, %16
  %37 = trunc i64 %36 to i16
  %38 = getelementptr inbounds nuw i16, ptr %.02733.us, i64 %indvars.iv
  store i16 %37, ptr %38, align 2, !tbaa !85
  %indvars.iv.next = add nuw nsw i64 %indvars.iv, 1
  %exitcond.not = icmp eq i64 %indvars.iv.next, %wide.trip.count
  br i1 %exitcond.not, label %._crit_edge.us, label %20, !llvm.loop !107

._crit_edge.us:                                   ; preds = %20
  %39 = getelementptr inbounds i16, ptr %.02733.us, i64 %17
  %40 = getelementptr inbounds i16, ptr %.02931.us, i64 %18
  %41 = getelementptr inbounds i16, ptr %.02832.us, i64 %19
  %42 = add nuw nsw i32 %.034.us, 1
  %exitcond38.not = icmp eq i32 %42, %7
  br i1 %exitcond38.not, label %._crit_edge35, label %.preheader.us, !llvm.loop !108

._crit_edge35:                                    ; preds = %._crit_edge.us, %.preheader.lr.ph, %11
  ret void
}